; Function Attrs: nounwind sspstrong uwtable
define i64 @date__jisx0301(i64 noundef %0) local_unnamed_addr #0 {
  %2 = alloca [10 x i64], align 16
  %3 = tail call i64 @rb_backref_get() #13
  tail call void @rb_match_busy(i64 noundef %3) #13
  %4 = tail call i64 @rb_hash_new() #13
  %5 = load i64, ptr @jisx0301.pat, align 8, !tbaa !6
  %6 = icmp eq i64 %5, 4
  br i1 %6, label %7, label %10

7:                                                ; preds = %1
  %8 = tail call i64 @rb_reg_new(ptr noundef nonnull @jisx0301.pat_source, i64 noundef 124, i32 noundef 1) #13
  %9 = tail call i64 @rb_obj_freeze(i64 noundef %8) #13
  tail call void @rb_gc_register_mark_object(i64 noundef %8) #13
  store i64 %8, ptr @jisx0301.pat, align 8, !tbaa !6
  br label %10

10:                                               ; preds = %7, %1
  %11 = phi i64 [ %8, %7 ], [ %5, %1 ]
  %.pr.i.i.i = load i64, ptr @match.rbimpl_id, align 8, !tbaa !6
  %.not4.i.i.i = icmp eq i64 %.pr.i.i.i, 0
  br i1 %.not4.i.i.i, label %.lr.ph.i.i.i, label %rbimpl_intern_const.exit.i.i

.lr.ph.i.i.i:                                     ; preds = %10, %.lr.ph.i.i.i
  %12 = tail call i64 @rb_intern2(ptr noundef nonnull @.str.41, i64 noundef 5) #13
  store i64 %12, ptr @match.rbimpl_id, align 8, !tbaa !6
  %.not.i.i.i = icmp eq i64 %12, 0
  br i1 %.not.i.i.i, label %.lr.ph.i.i.i, label %rbimpl_intern_const.exit.i.i, !llvm.loop !36

rbimpl_intern_const.exit.i.i:                     ; preds = %.lr.ph.i.i.i, %10
  %.lcssa.i.i.i = phi i64 [ %.pr.i.i.i, %10 ], [ %12, %.lr.ph.i.i.i ]
  %13 = tail call i64 (i64, i64, i32, ...) @rb_funcall(i64 noundef %11, i64 noundef %.lcssa.i.i.i, i32 noundef 1, i64 noundef %0) #13
  %14 = icmp eq i64 %13, 4
  br i1 %14, label %113, label %15

15:                                               ; preds = %rbimpl_intern_const.exit.i.i
  call void @llvm.lifetime.start.p0(i64 80, ptr nonnull %2) #13
  br label %16

16:                                               ; preds = %16, %15
  %indvars.iv.i.i = phi i64 [ 1, %15 ], [ %indvars.iv.next.i.i, %16 ]
  %17 = trunc nuw nsw i64 %indvars.iv.i.i to i32
  %18 = tail call i64 @rb_reg_nth_match(i32 noundef %17, i64 noundef %13) #13
  %19 = getelementptr inbounds nuw [10 x i64], ptr %2, i64 0, i64 %indvars.iv.i.i
  store i64 %18, ptr %19, align 8, !tbaa !6
  %indvars.iv.next.i.i = add nuw nsw i64 %indvars.iv.i.i, 1
  %exitcond.not.i.i = icmp eq i64 %indvars.iv.next.i.i, 10
  br i1 %exitcond.not.i.i, label %20, label %16, !llvm.loop !134

20:                                               ; preds = %16
  %21 = getelementptr inbounds nuw i8, ptr %2, i64 8
  %22 = load i64, ptr %21, align 8, !tbaa !6
  %23 = icmp eq i64 %22, 4
  br i1 %23, label %.thread.i.i, label %24

24:                                               ; preds = %20
  %25 = inttoptr i64 %22 to ptr
  %26 = load i64, ptr %25, align 8, !tbaa !13, !noalias !135
  %27 = and i64 %26, 8192
  %.not.i.i.i.i = icmp eq i64 %27, 0
  %28 = getelementptr inbounds nuw i8, ptr %25, i64 24
  br i1 %.not.i.i.i.i, label %30, label %29

29:                                               ; preds = %24
  %.sroa.2.0.copyload.i.i.i = load ptr, ptr %28, align 8
  br label %30

30:                                               ; preds = %29, %24
  %.sroa.2.0.i.i.i = phi ptr [ %.sroa.2.0.copyload.i.i.i, %29 ], [ %28, %24 ]
  %31 = load i8, ptr %.sroa.2.0.i.i.i, align 1, !tbaa !20
  switch i8 %31, label %35 [
    i8 77, label %gengo.exit.i.i
    i8 109, label %gengo.exit.i.i
    i8 84, label %32
    i8 116, label %32
    i8 83, label %33
    i8 115, label %33
    i8 72, label %.thread.i.i
    i8 104, label %.thread.i.i
    i8 82, label %34
    i8 114, label %34
  ]

32:                                               ; preds = %30, %30
  br label %gengo.exit.i.i

33:                                               ; preds = %30, %30
  br label %gengo.exit.i.i

.thread.i.i:                                      ; preds = %30, %30, %20
  br label %gengo.exit.i.i

34:                                               ; preds = %30, %30
  br label %gengo.exit.i.i

35:                                               ; preds = %30
  br label %gengo.exit.i.i

gengo.exit.i.i:                                   ; preds = %35, %34, %.thread.i.i, %33, %32, %30, %30
  %.0.i.i.i = phi i64 [ 1, %35 ], [ 4037, %34 ], [ 3977, %.thread.i.i ], [ 3851, %33 ], [ 3823, %32 ], [ 3735, %30 ], [ 3735, %30 ]
  %.pr.i.i2.i = load i64, ptr @jisx0301_cb.rbimpl_id, align 8, !tbaa !6
  %.not4.i.i3.i = icmp eq i64 %.pr.i.i2.i, 0
  br i1 %.not4.i.i3.i, label %.lr.ph.i.i6.i, label %rbimpl_intern_const.exit.i4.i

.lr.ph.i.i6.i:                                    ; preds = %gengo.exit.i.i, %.lr.ph.i.i6.i
  %36 = tail call i64 @rb_intern2(ptr noundef nonnull @.str.18, i64 noundef 4) #13
  store i64 %36, ptr @jisx0301_cb.rbimpl_id, align 8, !tbaa !6
  %.not.i.i7.i = icmp eq i64 %36, 0
  br i1 %.not.i.i7.i, label %.lr.ph.i.i6.i, label %rbimpl_intern_const.exit.i4.i, !llvm.loop !36

rbimpl_intern_const.exit.i4.i:                    ; preds = %.lr.ph.i.i6.i, %gengo.exit.i.i
  %.lcssa.i.i5.i = phi i64 [ %.pr.i.i2.i, %gengo.exit.i.i ], [ %36, %.lr.ph.i.i6.i ]
  %37 = tail call i64 @rb_id2sym(i64 noundef %.lcssa.i.i5.i) #13
  %38 = getelementptr inbounds nuw i8, ptr %2, i64 16
  %39 = load i64, ptr %38, align 16, !tbaa !6
  %40 = tail call i64 @rb_str_to_inum(i64 noundef %39, i32 noundef 10, i32 noundef 0) #13
  %41 = tail call i64 (i64, i64, i32, ...) @rb_funcall(i64 noundef %40, i64 noundef 43, i32 noundef 1, i64 noundef %.0.i.i.i) #13
  %42 = tail call i64 @rb_hash_aset(i64 noundef %4, i64 noundef %37, i64 noundef %41) #13
  %.pr.i24.i.i = load i64, ptr @jisx0301_cb.rbimpl_id.233, align 8, !tbaa !6
  %.not4.i25.i.i = icmp eq i64 %.pr.i24.i.i, 0
  br i1 %.not4.i25.i.i, label %.lr.ph.i27.i.i, label %rbimpl_intern_const.exit29.i.i

.lr.ph.i27.i.i:                                   ; preds = %rbimpl_intern_const.exit.i4.i, %.lr.ph.i27.i.i
  %43 = tail call i64 @rb_intern2(ptr noundef nonnull @.str.63, i64 noundef 3) #13
  store i64 %43, ptr @jisx0301_cb.rbimpl_id.233, align 8, !tbaa !6
  %.not.i28.i.i = icmp eq i64 %43, 0
  br i1 %.not.i28.i.i, label %.lr.ph.i27.i.i, label %rbimpl_intern_const.exit29.i.i, !llvm.loop !36

rbimpl_intern_const.exit29.i.i:                   ; preds = %.lr.ph.i27.i.i, %rbimpl_intern_const.exit.i4.i
  %.lcssa.i26.i.i = phi i64 [ %.pr.i24.i.i, %rbimpl_intern_const.exit.i4.i ], [ %43, %.lr.ph.i27.i.i ]
  %44 = tail call i64 @rb_id2sym(i64 noundef %.lcssa.i26.i.i) #13
  %45 = getelementptr inbounds nuw i8, ptr %2, i64 24
  %46 = load i64, ptr %45, align 8, !tbaa !6
  %47 = tail call i64 @rb_str_to_inum(i64 noundef %46, i32 noundef 10, i32 noundef 0) #13
  %48 = tail call i64 @rb_hash_aset(i64 noundef %4, i64 noundef %44, i64 noundef %47) #13
  %.pr.i30.i.i = load i64, ptr @jisx0301_cb.rbimpl_id.234, align 8, !tbaa !6
  %.not4.i31.i.i = icmp eq i64 %.pr.i30.i.i, 0
  br i1 %.not4.i31.i.i, label %.lr.ph.i33.i.i, label %rbimpl_intern_const.exit35.i.i

.lr.ph.i33.i.i:                                   ; preds = %rbimpl_intern_const.exit29.i.i, %.lr.ph.i33.i.i
  %49 = tail call i64 @rb_intern2(ptr noundef nonnull @.str.65, i64 noundef 4) #13
  store i64 %49, ptr @jisx0301_cb.rbimpl_id.234, align 8, !tbaa !6
  %.not.i34.i.i = icmp eq i64 %49, 0
  br i1 %.not.i34.i.i, label %.lr.ph.i33.i.i, label %rbimpl_intern_const.exit35.i.i, !llvm.loop !36

rbimpl_intern_const.exit35.i.i:                   ; preds = %.lr.ph.i33.i.i, %rbimpl_intern_const.exit29.i.i
  %.lcssa.i32.i.i = phi i64 [ %.pr.i30.i.i, %rbimpl_intern_const.exit29.i.i ], [ %49, %.lr.ph.i33.i.i ]
  %50 = tail call i64 @rb_id2sym(i64 noundef %.lcssa.i32.i.i) #13
  %51 = getelementptr inbounds nuw i8, ptr %2, i64 32
  %52 = load i64, ptr %51, align 16, !tbaa !6
  %53 = tail call i64 @rb_str_to_inum(i64 noundef %52, i32 noundef 10, i32 noundef 0) #13
  %54 = tail call i64 @rb_hash_aset(i64 noundef %4, i64 noundef %50, i64 noundef %53) #13
  %55 = getelementptr inbounds nuw i8, ptr %2, i64 40
  %56 = load i64, ptr %55, align 8, !tbaa !6
  %57 = icmp eq i64 %56, 4
  br i1 %57, label %80, label %58

58:                                               ; preds = %rbimpl_intern_const.exit35.i.i
  %.pr.i36.i.i = load i64, ptr @jisx0301_cb.rbimpl_id.235, align 8, !tbaa !6
  %.not4.i37.i.i = icmp eq i64 %.pr.i36.i.i, 0
  br i1 %.not4.i37.i.i, label %.lr.ph.i39.i.i, label %rbimpl_intern_const.exit41.i.i

.lr.ph.i39.i.i:                                   ; preds = %58, %.lr.ph.i39.i.i
  %59 = tail call i64 @rb_intern2(ptr noundef nonnull @.str.52, i64 noundef 4) #13
  store i64 %59, ptr @jisx0301_cb.rbimpl_id.235, align 8, !tbaa !6
  %.not.i40.i.i = icmp eq i64 %59, 0
  br i1 %.not.i40.i.i, label %.lr.ph.i39.i.i, label %rbimpl_intern_const.exit41.i.i, !llvm.loop !36

rbimpl_intern_const.exit41.i.i:                   ; preds = %.lr.ph.i39.i.i, %58
  %.lcssa.i38.i.i = phi i64 [ %.pr.i36.i.i, %58 ], [ %59, %.lr.ph.i39.i.i ]
  %60 = tail call i64 @rb_id2sym(i64 noundef %.lcssa.i38.i.i) #13
  %61 = tail call i64 @rb_str_to_inum(i64 noundef %56, i32 noundef 10, i32 noundef 0) #13
  %62 = tail call i64 @rb_hash_aset(i64 noundef %4, i64 noundef %60, i64 noundef %61) #13
  %63 = getelementptr inbounds nuw i8, ptr %2, i64 48
  %64 = load i64, ptr %63, align 16, !tbaa !6
  %65 = icmp eq i64 %64, 4
  br i1 %65, label %71, label %66

66:                                               ; preds = %rbimpl_intern_const.exit41.i.i
  %.pr.i42.i.i = load i64, ptr @jisx0301_cb.rbimpl_id.236, align 8, !tbaa !6
  %.not4.i43.i.i = icmp eq i64 %.pr.i42.i.i, 0
  br i1 %.not4.i43.i.i, label %.lr.ph.i45.i.i, label %rbimpl_intern_const.exit47.i.i

.lr.ph.i45.i.i:                                   ; preds = %66, %.lr.ph.i45.i.i
  %67 = tail call i64 @rb_intern2(ptr noundef nonnull @.str.54, i64 noundef 3) #13
  store i64 %67, ptr @jisx0301_cb.rbimpl_id.236, align 8, !tbaa !6
  %.not.i46.i.i = icmp eq i64 %67, 0
  br i1 %.not.i46.i.i, label %.lr.ph.i45.i.i, label %rbimpl_intern_const.exit47.i.i, !llvm.loop !36

rbimpl_intern_const.exit47.i.i:                   ; preds = %.lr.ph.i45.i.i, %66
  %.lcssa.i44.i.i = phi i64 [ %.pr.i42.i.i, %66 ], [ %67, %.lr.ph.i45.i.i ]
  %68 = tail call i64 @rb_id2sym(i64 noundef %.lcssa.i44.i.i) #13
  %69 = tail call i64 @rb_str_to_inum(i64 noundef %64, i32 noundef 10, i32 noundef 0) #13
  %70 = tail call i64 @rb_hash_aset(i64 noundef %4, i64 noundef %68, i64 noundef %69) #13
  br label %71

71:                                               ; preds = %rbimpl_intern_const.exit47.i.i, %rbimpl_intern_const.exit41.i.i
  %72 = getelementptr inbounds nuw i8, ptr %2, i64 56
  %73 = load i64, ptr %72, align 8, !tbaa !6
  %74 = icmp eq i64 %73, 4
  br i1 %74, label %80, label %75

75:                                               ; preds = %71
  %.pr.i48.i.i = load i64, ptr @jisx0301_cb.rbimpl_id.237, align 8, !tbaa !6
  %.not4.i49.i.i = icmp eq i64 %.pr.i48.i.i, 0
  br i1 %.not4.i49.i.i, label %.lr.ph.i51.i.i, label %rbimpl_intern_const.exit53.i.i

.lr.ph.i51.i.i:                                   ; preds = %75, %.lr.ph.i51.i.i
  %76 = tail call i64 @rb_intern2(ptr noundef nonnull @.str.56, i64 noundef 3) #13
  store i64 %76, ptr @jisx0301_cb.rbimpl_id.237, align 8, !tbaa !6
  %.not.i52.i.i = icmp eq i64 %76, 0
  br i1 %.not.i52.i.i, label %.lr.ph.i51.i.i, label %rbimpl_intern_const.exit53.i.i, !llvm.loop !36

rbimpl_intern_const.exit53.i.i:                   ; preds = %.lr.ph.i51.i.i, %75
  %.lcssa.i50.i.i = phi i64 [ %.pr.i48.i.i, %75 ], [ %76, %.lr.ph.i51.i.i ]
  %77 = tail call i64 @rb_id2sym(i64 noundef %.lcssa.i50.i.i) #13
  %78 = tail call i64 @rb_str_to_inum(i64 noundef %73, i32 noundef 10, i32 noundef 0) #13
  %79 = tail call i64 @rb_hash_aset(i64 noundef %4, i64 noundef %77, i64 noundef %78) #13
  br label %80

80:                                               ; preds = %rbimpl_intern_const.exit53.i.i, %71, %rbimpl_intern_const.exit35.i.i
  %81 = getelementptr inbounds nuw i8, ptr %2, i64 64
  %82 = load i64, ptr %81, align 16, !tbaa !6
  %83 = icmp eq i64 %82, 4
  br i1 %83, label %101, label %84

84:                                               ; preds = %80
  %.pr.i54.i.i = load i64, ptr @jisx0301_cb.rbimpl_id.238, align 8, !tbaa !6
  %.not4.i55.i.i = icmp eq i64 %.pr.i54.i.i, 0
  br i1 %.not4.i55.i.i, label %.lr.ph.i57.i.i, label %rbimpl_intern_const.exit59.i.i

.lr.ph.i57.i.i:                                   ; preds = %84, %.lr.ph.i57.i.i
  %85 = tail call i64 @rb_intern2(ptr noundef nonnull @.str.58, i64 noundef 12) #13
  store i64 %85, ptr @jisx0301_cb.rbimpl_id.238, align 8, !tbaa !6
  %.not.i58.i.i = icmp eq i64 %85, 0
  br i1 %.not.i58.i.i, label %.lr.ph.i57.i.i, label %rbimpl_intern_const.exit59.i.i, !llvm.loop !36

rbimpl_intern_const.exit59.i.i:                   ; preds = %.lr.ph.i57.i.i, %84
  %.lcssa.i56.i.i = phi i64 [ %.pr.i54.i.i, %84 ], [ %85, %.lr.ph.i57.i.i ]
  %86 = tail call i64 @rb_id2sym(i64 noundef %.lcssa.i56.i.i) #13
  %87 = tail call i64 @rb_str_to_inum(i64 noundef %82, i32 noundef 10, i32 noundef 0) #13
  %.pr.i.i.i.i = load i64, ptr @sec_fraction.rbimpl_id, align 8, !tbaa !6
  %.not4.i.i.i.i = icmp eq i64 %.pr.i.i.i.i, 0
  br i1 %.not4.i.i.i.i, label %.lr.ph.i.i.i.i, label %rbimpl_intern_const.exit.i.i.i

.lr.ph.i.i.i.i:                                   ; preds = %rbimpl_intern_const.exit59.i.i, %.lr.ph.i.i.i.i
  %88 = tail call i64 @rb_intern2(ptr noundef nonnull @.str.50, i64 noundef 2) #13
  store i64 %88, ptr @sec_fraction.rbimpl_id, align 8, !tbaa !6
  %.not.i.i60.i.i = icmp eq i64 %88, 0
  br i1 %.not.i.i60.i.i, label %.lr.ph.i.i.i.i, label %rbimpl_intern_const.exit.i.i.i, !llvm.loop !36

rbimpl_intern_const.exit.i.i.i:                   ; preds = %.lr.ph.i.i.i.i, %rbimpl_intern_const.exit59.i.i
  %.lcssa.i.i.i.i = phi i64 [ %.pr.i.i.i.i, %rbimpl_intern_const.exit59.i.i ], [ %88, %.lr.ph.i.i.i.i ]
  %89 = inttoptr i64 %82 to ptr
  %90 = getelementptr inbounds nuw i8, ptr %89, i64 16
  %91 = load i64, ptr %90, align 8, !tbaa !10
  %92 = add i64 %91, 4611686018427387904
  %or.cond.i.i.i.i = icmp sgt i64 %92, -1
  br i1 %or.cond.i.i.i.i, label %93, label %96

93:                                               ; preds = %rbimpl_intern_const.exit.i.i.i
  %94 = shl nsw i64 %91, 1
  %95 = or disjoint i64 %94, 1
  br label %sec_fraction.exit.i.i

96:                                               ; preds = %rbimpl_intern_const.exit.i.i.i
  %97 = tail call i64 @rb_int2big(i64 noundef %91) #13
  br label %sec_fraction.exit.i.i

sec_fraction.exit.i.i:                            ; preds = %96, %93
  %.0.i.i.i.i = phi i64 [ %95, %93 ], [ %97, %96 ]
  %98 = tail call i64 (i64, i64, i32, ...) @rb_funcall(i64 noundef 21, i64 noundef %.lcssa.i.i.i.i, i32 noundef 1, i64 noundef %.0.i.i.i.i) #13
  %99 = tail call i64 @rb_rational_new(i64 noundef %87, i64 noundef %98) #13
  %100 = tail call i64 @rb_hash_aset(i64 noundef %4, i64 noundef %86, i64 noundef %99) #13
  br label %101

101:                                              ; preds = %sec_fraction.exit.i.i, %80
  %102 = getelementptr inbounds nuw i8, ptr %2, i64 72
  %103 = load i64, ptr %102, align 8, !tbaa !6
  %104 = icmp eq i64 %103, 4
  br i1 %104, label %jisx0301.exit, label %105

105:                                              ; preds = %101
  %.pr.i61.i.i = load i64, ptr @jisx0301_cb.rbimpl_id.239, align 8, !tbaa !6
  %.not4.i62.i.i = icmp eq i64 %.pr.i61.i.i, 0
  br i1 %.not4.i62.i.i, label %.lr.ph.i64.i.i, label %rbimpl_intern_const.exit66.i.i

.lr.ph.i64.i.i:                                   ; preds = %105, %.lr.ph.i64.i.i
  %106 = tail call i64 @rb_intern2(ptr noundef nonnull @.str.37, i64 noundef 4) #13
  store i64 %106, ptr @jisx0301_cb.rbimpl_id.239, align 8, !tbaa !6
  %.not.i65.i.i = icmp eq i64 %106, 0
  br i1 %.not.i65.i.i, label %.lr.ph.i64.i.i, label %rbimpl_intern_const.exit66.i.i, !llvm.loop !36

rbimpl_intern_const.exit66.i.i:                   ; preds = %.lr.ph.i64.i.i, %105
  %.lcssa.i63.i.i = phi i64 [ %.pr.i61.i.i, %105 ], [ %106, %.lr.ph.i64.i.i ]
  %107 = tail call i64 @rb_id2sym(i64 noundef %.lcssa.i63.i.i) #13
  %108 = tail call i64 @rb_hash_aset(i64 noundef %4, i64 noundef %107, i64 noundef %103) #13
  %.pr.i67.i.i = load i64, ptr @jisx0301_cb.rbimpl_id.240, align 8, !tbaa !6
  %.not4.i68.i.i = icmp eq i64 %.pr.i67.i.i, 0
  br i1 %.not4.i68.i.i, label %.lr.ph.i70.i.i, label %rbimpl_intern_const.exit72.i.i

.lr.ph.i70.i.i:                                   ; preds = %rbimpl_intern_const.exit66.i.i, %.lr.ph.i70.i.i
  %109 = tail call i64 @rb_intern2(ptr noundef nonnull @.str.39, i64 noundef 6) #13
  store i64 %109, ptr @jisx0301_cb.rbimpl_id.240, align 8, !tbaa !6
  %.not.i71.i.i = icmp eq i64 %109, 0
  br i1 %.not.i71.i.i, label %.lr.ph.i70.i.i, label %rbimpl_intern_const.exit72.i.i, !llvm.loop !36

rbimpl_intern_const.exit72.i.i:                   ; preds = %.lr.ph.i70.i.i, %rbimpl_intern_const.exit66.i.i
  %.lcssa.i69.i.i = phi i64 [ %.pr.i67.i.i, %rbimpl_intern_const.exit66.i.i ], [ %109, %.lr.ph.i70.i.i ]
  %110 = tail call i64 @rb_id2sym(i64 noundef %.lcssa.i69.i.i) #13
  %111 = tail call i64 @date_zone_to_diff(i64 noundef %103)
  %112 = tail call i64 @rb_hash_aset(i64 noundef %4, i64 noundef %110, i64 noundef %111) #13
  br label %jisx0301.exit

jisx0301.exit:                                    ; preds = %101, %rbimpl_intern_const.exit72.i.i
  call void @llvm.lifetime.end.p0(i64 80, ptr nonnull %2) #13
  br label %115

113:                                              ; preds = %rbimpl_intern_const.exit.i.i
  %114 = tail call i64 @date__iso8601(i64 noundef %0)
  br label %115

115:                                              ; preds = %jisx0301.exit, %113
  %.0 = phi i64 [ %4, %jisx0301.exit ], [ %114, %113 ]
  tail call void @rb_backref_set(i64 noundef %3) #13
  ret i64 %.0
}